
program.elf:     file format elf32-tradlittlemips


Disassembly of section .reset:

9fc00000 <start>:
9fc00000:	40804800 	mtc0	zero,c0_count

9fc00004 <init_gpr>:
9fc00004:	3c01dead 	lui	at,0xdead
9fc00008:	3421beef 	ori	at,at,0xbeef
9fc0000c:	401d6002 	mfc0	sp,c0_srsctl
9fc00010:	7fbe1e80 	ext	s8,sp,0x1a,0x4

9fc00014 <next_shadow_set>:
9fc00014:	7fdd4984 	ins	sp,s8,0x6,0x4
9fc00018:	409d6002 	mtc0	sp,c0_srsctl
9fc0001c:	41c10800 	wrpgpr	at,at
9fc00020:	41c11000 	wrpgpr	v0,at
9fc00024:	41c11800 	wrpgpr	v1,at
9fc00028:	41c12000 	wrpgpr	a0,at
9fc0002c:	41c12800 	wrpgpr	a1,at
9fc00030:	41c13000 	wrpgpr	a2,at
9fc00034:	41c13800 	wrpgpr	a3,at
9fc00038:	41c14000 	wrpgpr	t0,at
9fc0003c:	41c14800 	wrpgpr	t1,at
9fc00040:	41c15000 	wrpgpr	t2,at
9fc00044:	41c15800 	wrpgpr	t3,at
9fc00048:	41c16000 	wrpgpr	t4,at
9fc0004c:	41c16800 	wrpgpr	t5,at
9fc00050:	41c17000 	wrpgpr	t6,at
9fc00054:	41c17800 	wrpgpr	t7,at
9fc00058:	41c18000 	wrpgpr	s0,at
9fc0005c:	41c18800 	wrpgpr	s1,at
9fc00060:	41c19000 	wrpgpr	s2,at
9fc00064:	41c19800 	wrpgpr	s3,at
9fc00068:	41c1a000 	wrpgpr	s4,at
9fc0006c:	41c1a800 	wrpgpr	s5,at
9fc00070:	41c1b000 	wrpgpr	s6,at
9fc00074:	41c1b800 	wrpgpr	s7,at
9fc00078:	41c1c000 	wrpgpr	t8,at
9fc0007c:	41c1c800 	wrpgpr	t9,at
9fc00080:	41c1d000 	wrpgpr	k0,at
9fc00084:	41c1d800 	wrpgpr	k1,at
9fc00088:	41c1e000 	wrpgpr	gp,at
9fc0008c:	13c00005 	beqz	s8,9fc000a4 <init_cp0>
9fc00090:	41c1e800 	wrpgpr	sp,at
9fc00094:	41c1f000 	wrpgpr	s8,at
9fc00098:	41c1f800 	wrpgpr	ra,at
9fc0009c:	1000ffdd 	b	9fc00014 <next_shadow_set>
9fc000a0:	23deffff 	addi	s8,s8,-1

9fc000a4 <init_cp0>:
9fc000a4:	3c030040 	lui	v1,0x40
9fc000a8:	34630004 	ori	v1,v1,0x4
9fc000ac:	40836000 	mtc0	v1,c0_status
9fc000b0:	40028001 	mfc0	v0,c0_config1
9fc000b4:	7c4300c0 	ext	v1,v0,0x3,0x1
9fc000b8:	1060001f 	beqz	v1,9fc00138 <done_wr>
9fc000bc:	24030007 	li	v1,7
9fc000c0:	40839800 	mtc0	v1,c0_watchhi
9fc000c4:	40029800 	mfc0	v0,c0_watchhi
9fc000c8:	0441001b 	bgez	v0,9fc00138 <done_wr>
9fc000cc:	40809000 	mtc0	zero,c0_watchlo
9fc000d0:	40839801 	mtc0	v1,c0_watchhi,1
9fc000d4:	40029801 	mfc0	v0,c0_watchhi,1
9fc000d8:	04410017 	bgez	v0,9fc00138 <done_wr>
9fc000dc:	40809001 	mtc0	zero,c0_watchlo,1
9fc000e0:	40839802 	mtc0	v1,c0_watchhi,2
9fc000e4:	40029802 	mfc0	v0,c0_watchhi,2
9fc000e8:	04410013 	bgez	v0,9fc00138 <done_wr>
9fc000ec:	40809002 	mtc0	zero,c0_watchlo,2
9fc000f0:	40839803 	mtc0	v1,c0_watchhi,3
9fc000f4:	40029803 	mfc0	v0,c0_watchhi,3
9fc000f8:	0441000f 	bgez	v0,9fc00138 <done_wr>
9fc000fc:	40809003 	mtc0	zero,c0_watchlo,3
9fc00100:	40839804 	mtc0	v1,c0_watchhi,4
9fc00104:	40029804 	mfc0	v0,c0_watchhi,4
9fc00108:	0441000b 	bgez	v0,9fc00138 <done_wr>
9fc0010c:	40809004 	mtc0	zero,c0_watchlo,4
9fc00110:	40839805 	mtc0	v1,c0_watchhi,5
9fc00114:	40029805 	mfc0	v0,c0_watchhi,5
9fc00118:	04410007 	bgez	v0,9fc00138 <done_wr>
9fc0011c:	40809005 	mtc0	zero,c0_watchlo,5
9fc00120:	40839806 	mtc0	v1,c0_watchhi,6
9fc00124:	40029806 	mfc0	v0,c0_watchhi,6
9fc00128:	04410003 	bgez	v0,9fc00138 <done_wr>
9fc0012c:	40809006 	mtc0	zero,c0_watchlo,6
9fc00130:	40839807 	mtc0	v1,c0_watchhi,7
9fc00134:	40809007 	mtc0	zero,c0_watchlo,7

9fc00138 <done_wr>:
9fc00138:	40806800 	mtc0	zero,c0_cause
9fc0013c:	40805800 	mtc0	zero,c0_compare

9fc00140 <init_tlb>:
9fc00140:	40038000 	mfc0	v1,c0_config
9fc00144:	7c6311c0 	ext	v1,v1,0x7,0x3
9fc00148:	24070001 	li	a3,1
9fc0014c:	1467000e 	bne	v1,a3,9fc00188 <init_icache>
9fc00150:	40028001 	mfc0	v0,c0_config1
9fc00154:	7c432e40 	ext	v1,v0,0x19,0x6
9fc00158:	40801000 	mtc0	zero,c0_entrylo0
9fc0015c:	40801800 	mtc0	zero,c0_entrylo1
9fc00160:	40802800 	mtc0	zero,c0_pagemask
9fc00164:	40803000 	mtc0	zero,c0_wired
9fc00168:	3c048000 	lui	a0,0x8000

9fc0016c <next_tlb_entry>:
9fc0016c:	40830000 	mtc0	v1,c0_index
9fc00170:	40845000 	mtc0	a0,c0_entryhi
9fc00174:	000000c0 	ehb
9fc00178:	42000002 	tlbwi
9fc0017c:	20844000 	addi	a0,a0,16384
9fc00180:	1460fffa 	bnez	v1,9fc0016c <next_tlb_entry>
9fc00184:	2063ffff 	addi	v1,v1,-1

9fc00188 <init_icache>:
9fc00188:	40028001 	mfc0	v0,c0_config1
9fc0018c:	7c4314c0 	ext	v1,v0,0x13,0x3
9fc00190:	10600010 	beqz	v1,9fc001d4 <done_icache>
9fc00194:	00000000 	nop
9fc00198:	24060002 	li	a2,2
9fc0019c:	00661804 	sllv	v1,a2,v1
9fc001a0:	7c441580 	ext	a0,v0,0x16,0x3
9fc001a4:	24060040 	li	a2,64
9fc001a8:	00862004 	sllv	a0,a2,a0
9fc001ac:	7c451400 	ext	a1,v0,0x10,0x3
9fc001b0:	20a50001 	addi	a1,a1,1
9fc001b4:	70852002 	mul	a0,a0,a1
9fc001b8:	3c068000 	lui	a2,0x8000
9fc001bc:	4080e000 	mtc0	zero,c0_taglo
9fc001c0:	00803821 	move	a3,a0

9fc001c4 <next_icache_tag>:
9fc001c4:	bcc80000 	cache	0x8,0(a2)
9fc001c8:	20e7ffff 	addi	a3,a3,-1
9fc001cc:	14e0fffd 	bnez	a3,9fc001c4 <next_icache_tag>
9fc001d0:	00c33020 	add	a2,a2,v1

9fc001d4 <done_icache>:
9fc001d4:	40028000 	mfc0	v0,c0_config
9fc001d8:	24030003 	li	v1,3
9fc001dc:	7c621004 	ins	v0,v1,0x0,0x3
9fc001e0:	40828000 	mtc0	v0,c0_config
9fc001e4:	3c069fc0 	lui	a2,0x9fc0
9fc001e8:	24c601f4 	addiu	a2,a2,500
9fc001ec:	00c00008 	jr	a2
9fc001f0:	000000c0 	ehb

9fc001f4 <init_dcache>:
9fc001f4:	40028001 	mfc0	v0,c0_config1
9fc001f8:	7c431280 	ext	v1,v0,0xa,0x3
9fc001fc:	10600011 	beqz	v1,9fc00244 <done_dcache>
9fc00200:	00000000 	nop
9fc00204:	24060002 	li	a2,2
9fc00208:	00661804 	sllv	v1,a2,v1
9fc0020c:	7c441340 	ext	a0,v0,0xd,0x3
9fc00210:	24060040 	li	a2,64
9fc00214:	00862004 	sllv	a0,a2,a0
9fc00218:	7c4511c0 	ext	a1,v0,0x7,0x3
9fc0021c:	20a50001 	addi	a1,a1,1
9fc00220:	70852002 	mul	a0,a0,a1
9fc00224:	3c068000 	lui	a2,0x8000
9fc00228:	4080e000 	mtc0	zero,c0_taglo
9fc0022c:	4080e002 	mtc0	zero,c0_taglo1
9fc00230:	00803821 	move	a3,a0

9fc00234 <next_dcache_tag>:
9fc00234:	bcc90000 	cache	0x9,0(a2)
9fc00238:	20e7ffff 	addi	a3,a3,-1
9fc0023c:	14e0fffd 	bnez	a3,9fc00234 <next_dcache_tag>
9fc00240:	00c33020 	add	a2,a2,v1

9fc00244 <done_dcache>:
9fc00244:	3c1f9fc0 	lui	ra,0x9fc0
9fc00248:	27ff0274 	addiu	ra,ra,628
9fc0024c:	00002021 	move	a0,zero
9fc00250:	3c028000 	lui	v0,0x8000
9fc00254:	244211ec 	addiu	v0,v0,4588
9fc00258:	4082f000 	mtc0	v0,c0_errorepc
9fc0025c:	000000c0 	ehb
9fc00260:	3c1d8004 	lui	sp,0x8004
9fc00264:	27bd0000 	addiu	sp,sp,0
9fc00268:	3c1c8001 	lui	gp,0x8001
9fc0026c:	279c9290 	addiu	gp,gp,-28016
9fc00270:	42000018 	eret

9fc00274 <all_done>:
9fc00274:	1000ffff 	b	9fc00274 <all_done>
9fc00278:	00000000 	nop
9fc0027c:	00000000 	nop

Disassembly of section .pdr:

00000000 <.pdr>:
   0:	800011ec 	lb	zero,4588(zero)
	...
  18:	0000001d 	0x1d
  1c:	0000001f 	0x1f

Disassembly of section .gnu.attributes:

00000000 <.gnu.attributes>:
   0:	00000f41 	0xf41
   4:	756e6700 	jalx	5b99c00 <__memory_size+0x5b7a400>
   8:	00070100 	sll	zero,a3,0x4
   c:	03040000 	0x3040000

Disassembly of section .comment:

00000000 <.comment>:
   0:	3a434347 	xori	v1,s2,0x4347
   4:	6f432820 	0x6f432820
   8:	63736564 	0x63736564
   c:	20657061 	addi	a1,v1,28769
  10:	20554e47 	addi	s5,v0,20039
  14:	6c6f6f54 	0x6c6f6f54
  18:	30322073 	andi	s2,at,0x2073
  1c:	302e3531 	andi	t6,at,0x3531
  20:	35302d36 	ori	s0,t1,0x2d36
  24:	726f6620 	0x726f6620
  28:	50494d20 	beql	v0,t1,134ac <__memory_size-0xc354>
  2c:	544d2053 	bnel	v0,t5,817c <__memory_size-0x17684>
  30:	61422049 	0x61422049
  34:	4d206572 	0x4d206572
  38:	6c617465 	0x6c617465
  3c:	2e342029 	sltiu	s4,s1,8233
  40:	00322e39 	0x322e39

Disassembly of section .text_ram:

80001000 <deregister_tm_clones>:
80001000:	3c048000 	lui	a0,0x8000
80001004:	3c028000 	lui	v0,0x8000
80001008:	248412ac 	addiu	a0,a0,4780
8000100c:	244212af 	addiu	v0,v0,4783
80001010:	00441023 	subu	v0,v0,a0
80001014:	2c420007 	sltiu	v0,v0,7
80001018:	14400006 	bnez	v0,80001034 <deregister_tm_clones+0x34>
8000101c:	3c190000 	lui	t9,0x0
80001020:	27390000 	addiu	t9,t9,0
80001024:	13200003 	beqz	t9,80001034 <deregister_tm_clones+0x34>
80001028:	00000000 	nop
8000102c:	03200008 	jr	t9
80001030:	00000000 	nop
80001034:	03e00008 	jr	ra
80001038:	00000000 	nop

8000103c <register_tm_clones>:
8000103c:	3c048000 	lui	a0,0x8000
80001040:	3c028000 	lui	v0,0x8000
80001044:	248412ac 	addiu	a0,a0,4780
80001048:	244212ac 	addiu	v0,v0,4780
8000104c:	00441023 	subu	v0,v0,a0
80001050:	00021083 	sra	v0,v0,0x2
80001054:	00022fc2 	srl	a1,v0,0x1f
80001058:	00a22821 	addu	a1,a1,v0
8000105c:	00052843 	sra	a1,a1,0x1
80001060:	10a00006 	beqz	a1,8000107c <register_tm_clones+0x40>
80001064:	3c190000 	lui	t9,0x0
80001068:	27390000 	addiu	t9,t9,0
8000106c:	13200003 	beqz	t9,8000107c <register_tm_clones+0x40>
80001070:	00000000 	nop
80001074:	03200008 	jr	t9
80001078:	00000000 	nop
8000107c:	03e00008 	jr	ra
80001080:	00000000 	nop

80001084 <__do_global_dtors_aux>:
80001084:	27bdffd8 	addiu	sp,sp,-40
80001088:	afb10018 	sw	s1,24(sp)
8000108c:	3c118000 	lui	s1,0x8000
80001090:	afbf0024 	sw	ra,36(sp)
80001094:	afb30020 	sw	s3,32(sp)
80001098:	afb2001c 	sw	s2,28(sp)
8000109c:	afb00014 	sw	s0,20(sp)
800010a0:	922212ac 	lbu	v0,4780(s1)
800010a4:	14400020 	bnez	v0,80001128 <__do_global_dtors_aux+0xa4>
800010a8:	3c028000 	lui	v0,0x8000
800010ac:	3c108000 	lui	s0,0x8000
800010b0:	244212a0 	addiu	v0,v0,4768
800010b4:	261012a4 	addiu	s0,s0,4772
800010b8:	3c138000 	lui	s3,0x8000
800010bc:	02028023 	subu	s0,s0,v0
800010c0:	00409021 	move	s2,v0
800010c4:	00108083 	sra	s0,s0,0x2
800010c8:	2610ffff 	addiu	s0,s0,-1
800010cc:	8e6212b0 	lw	v0,4784(s3)
800010d0:	0050182b 	sltu	v1,v0,s0
800010d4:	10600009 	beqz	v1,800010fc <__do_global_dtors_aux+0x78>
800010d8:	24420001 	addiu	v0,v0,1
800010dc:	ae6212b0 	sw	v0,4784(s3)
800010e0:	00021080 	sll	v0,v0,0x2
800010e4:	02421021 	addu	v0,s2,v0
800010e8:	8c420000 	lw	v0,0(v0)
800010ec:	0040f809 	jalr	v0
800010f0:	00000000 	nop
800010f4:	1000fff6 	b	800010d0 <__do_global_dtors_aux+0x4c>
800010f8:	8e6212b0 	lw	v0,4784(s3)
800010fc:	0c000400 	jal	80001000 <deregister_tm_clones>
80001100:	00000000 	nop
80001104:	3c020000 	lui	v0,0x0
80001108:	24420000 	addiu	v0,v0,0
8000110c:	10400005 	beqz	v0,80001124 <__do_global_dtors_aux+0xa0>
80001110:	24020001 	li	v0,1
80001114:	3c048000 	lui	a0,0x8000
80001118:	0c000000 	jal	80000000 <__app_start>
8000111c:	24841288 	addiu	a0,a0,4744
80001120:	24020001 	li	v0,1
80001124:	a22212ac 	sb	v0,4780(s1)
80001128:	8fbf0024 	lw	ra,36(sp)
8000112c:	8fb30020 	lw	s3,32(sp)
80001130:	8fb2001c 	lw	s2,28(sp)
80001134:	8fb10018 	lw	s1,24(sp)
80001138:	8fb00014 	lw	s0,20(sp)
8000113c:	03e00008 	jr	ra
80001140:	27bd0028 	addiu	sp,sp,40

80001144 <frame_dummy>:
80001144:	3c020000 	lui	v0,0x0
80001148:	27bdffe8 	addiu	sp,sp,-24
8000114c:	24420000 	addiu	v0,v0,0
80001150:	10400006 	beqz	v0,8000116c <frame_dummy+0x28>
80001154:	afbf0014 	sw	ra,20(sp)
80001158:	3c048000 	lui	a0,0x8000
8000115c:	3c058000 	lui	a1,0x8000
80001160:	24841288 	addiu	a0,a0,4744
80001164:	0c000000 	jal	80000000 <__app_start>
80001168:	24a512b4 	addiu	a1,a1,4788
8000116c:	3c048000 	lui	a0,0x8000
80001170:	248412a8 	addiu	a0,a0,4776
80001174:	8c820000 	lw	v0,0(a0)
80001178:	10400008 	beqz	v0,8000119c <frame_dummy+0x58>
8000117c:	8fbf0014 	lw	ra,20(sp)
80001180:	3c020000 	lui	v0,0x0
80001184:	24420000 	addiu	v0,v0,0
80001188:	10400004 	beqz	v0,8000119c <frame_dummy+0x58>
8000118c:	00000000 	nop
80001190:	0040f809 	jalr	v0
80001194:	00000000 	nop
80001198:	8fbf0014 	lw	ra,20(sp)
8000119c:	0800040f 	j	8000103c <register_tm_clones>
800011a0:	27bd0018 	addiu	sp,sp,24

800011a4 <__do_global_ctors_aux>:
800011a4:	27bdffe0 	addiu	sp,sp,-32
800011a8:	afb00014 	sw	s0,20(sp)
800011ac:	3c108000 	lui	s0,0x8000
800011b0:	afb10018 	sw	s1,24(sp)
800011b4:	2411ffff 	li	s1,-1
800011b8:	26101298 	addiu	s0,s0,4760
800011bc:	afbf001c 	sw	ra,28(sp)
800011c0:	8e020000 	lw	v0,0(s0)
800011c4:	10510005 	beq	v0,s1,800011dc <__do_global_ctors_aux+0x38>
800011c8:	8fbf001c 	lw	ra,28(sp)
800011cc:	0040f809 	jalr	v0
800011d0:	2610fffc 	addiu	s0,s0,-4
800011d4:	1000fffb 	b	800011c4 <__do_global_ctors_aux+0x20>
800011d8:	8e020000 	lw	v0,0(s0)
800011dc:	8fb10018 	lw	s1,24(sp)
800011e0:	8fb00014 	lw	s0,20(sp)
800011e4:	03e00008 	jr	ra
800011e8:	27bd0020 	addiu	sp,sp,32

800011ec <main>:
800011ec:	00001821 	move	v1,zero
800011f0:	00002821 	move	a1,zero
800011f4:	3c06bf80 	lui	a2,0xbf80
800011f8:	240bff00 	li	t3,-256
800011fc:	00052600 	sll	a0,a1,0x18
80001200:	00031202 	srl	v0,v1,0x8
80001204:	00821025 	or	v0,a0,v0
80001208:	00054400 	sll	t0,a1,0x10
8000120c:	00032402 	srl	a0,v1,0x10
80001210:	306a00ff 	andi	t2,v1,0xff
80001214:	24670001 	addiu	a3,v1,1
80001218:	004b1024 	and	v0,v0,t3
8000121c:	01042025 	or	a0,t0,a0
80001220:	00e3482b 	sltu	t1,a3,v1
80001224:	004a1025 	or	v0,v0,t2
80001228:	acc40000 	sw	a0,0(a2)
8000122c:	00e01821 	move	v1,a3
80001230:	acc40004 	sw	a0,4(a2)
80001234:	01252821 	addu	a1,t1,a1
80001238:	acc20010 	sw	v0,16(a2)
8000123c:	1000fff0 	b	80001200 <main+0x14>
80001240:	00052600 	sll	a0,a1,0x18
80001244:	00000000 	nop

Disassembly of section .init:

80001248 <_init>:
80001248:	27bdffe0 	addiu	sp,sp,-32
8000124c:	afbf0014 	sw	ra,20(sp)
80001250:	0c000451 	jal	80001144 <frame_dummy>
80001254:	00000000 	nop
80001258:	0c000469 	jal	800011a4 <__do_global_ctors_aux>
8000125c:	00000000 	nop

80001260 <init>:
80001260:	8fbf0014 	lw	ra,20(sp)
80001264:	03e00008 	jr	ra
80001268:	27bd0020 	addiu	sp,sp,32

Disassembly of section .fini:

8000126c <_fini>:
8000126c:	27bdffe0 	addiu	sp,sp,-32
80001270:	afbf0014 	sw	ra,20(sp)
80001274:	0c000421 	jal	80001084 <__do_global_dtors_aux>
80001278:	00000000 	nop

8000127c <fini>:
8000127c:	8fbf0014 	lw	ra,20(sp)
80001280:	03e00008 	jr	ra
80001284:	27bd0020 	addiu	sp,sp,32

Disassembly of section .eh_frame:

80001288 <__EH_FRAME_BEGIN__>:
80001288:	00000000 	nop

Disassembly of section .data:

8000128c <__dso_handle-0x4>:
8000128c:	00000000 	nop

80001290 <__dso_handle>:
	...

Disassembly of section .ctors:

80001298 <__CTOR_LIST__>:
80001298:	ffffffff 	sdc3	$31,-1(ra)

8000129c <__CTOR_END__>:
8000129c:	00000000 	nop

Disassembly of section .dtors:

800012a0 <__DTOR_LIST__>:
800012a0:	ffffffff 	sdc3	$31,-1(ra)

800012a4 <__DTOR_END__>:
800012a4:	00000000 	nop

Disassembly of section .jcr:

800012a8 <__JCR_END__>:
800012a8:	00000000 	nop

Disassembly of section .bss:

800012ac <completed.3434>:
800012ac:	00000000 	nop

800012b0 <dtor_idx.3436>:
800012b0:	00000000 	nop

800012b4 <object.3446>:
	...
